; Function Attrs: mustprogress uwtable
define hidden void @_ZN5osgeo4proj14DiskChunkCache14closeAndUnlinkEv(ptr noundef nonnull align 8 captures(none) dereferenceable(56) %0) local_unnamed_addr #3 align 2 {
  %2 = getelementptr inbounds nuw i8, ptr %0, i64 40
  %3 = load ptr, ptr %2, align 8, !tbaa !77
  %.not.i = icmp eq ptr %3, null
  br i1 %.not.i, label %_ZN5osgeo4proj14DiskChunkCache14commitAndCloseEv.exit, label %4

4:                                                ; preds = %1
  %5 = tail call i32 @sqlite3_exec(ptr noundef nonnull %3, ptr noundef nonnull @.str.32, ptr noundef null, ptr noundef null, ptr noundef null)
  %.not1.i = icmp eq i32 %5, 0
  br i1 %.not1.i, label %10, label %6

6:                                                ; preds = %4
  %7 = load ptr, ptr %0, align 8, !tbaa !58
  %8 = load ptr, ptr %2, align 8, !tbaa !77
  %9 = tail call ptr @sqlite3_errmsg(ptr noundef %8)
  tail call void (ptr, i32, ptr, ...) @_Z6pj_logP6pj_ctxiPKcz(ptr noundef %7, i32 noundef 1, ptr noundef nonnull @.str.3, ptr noundef %9)
  br label %10

10:                                               ; preds = %6, %4
  %11 = load ptr, ptr %2, align 8, !tbaa !77
  %12 = tail call i32 @sqlite3_close(ptr noundef %11)
  store ptr null, ptr %2, align 8, !tbaa !77
  br label %_ZN5osgeo4proj14DiskChunkCache14commitAndCloseEv.exit

_ZN5osgeo4proj14DiskChunkCache14commitAndCloseEv.exit: ; preds = %1, %10
  %13 = getelementptr inbounds nuw i8, ptr %0, i64 48
  %14 = load ptr, ptr %13, align 8, !tbaa !76
  %.not = icmp eq ptr %14, null
  br i1 %.not, label %23, label %15

15:                                               ; preds = %_ZN5osgeo4proj14DiskChunkCache14commitAndCloseEv.exit
  %16 = load ptr, ptr %14, align 8, !tbaa !100
  %17 = getelementptr inbounds nuw i8, ptr %16, i64 8
  %18 = getelementptr inbounds nuw i8, ptr %16, i64 56
  %19 = load ptr, ptr %18, align 8, !tbaa !103
  %20 = getelementptr inbounds nuw i8, ptr %0, i64 8
  %21 = load ptr, ptr %20, align 8, !tbaa !18
  %22 = tail call noundef i32 %19(ptr noundef nonnull %17, ptr noundef %21, i32 noundef 0)
  br label %23

23:                                               ; preds = %15, %_ZN5osgeo4proj14DiskChunkCache14commitAndCloseEv.exit
  ret void
}